target datalayout = "e-m:e-p270:32:32-p271:32:32-p272:64:64-i64:64-i128:128-f80:128-n8:16:32:64-S128"
target triple = "x86_64-pc-linux-gnu"

%struct._RsvgRectangle = type { double, double, double, double }

; Function Attrs: nounwind uwtable
define void @dt_render_svg(ptr noundef %0, ptr noundef %1, double noundef %2, double noundef %3, double noundef %4, double noundef %5) #0 {
  %7 = alloca ptr, align 8
  %8 = alloca ptr, align 8
  %9 = alloca double, align 8
  %10 = alloca double, align 8
  %11 = alloca double, align 8
  %12 = alloca double, align 8
  %13 = alloca %struct._RsvgRectangle, align 8
  store ptr %0, ptr %7, align 8, !tbaa !51
  store ptr %1, ptr %8, align 8, !tbaa !97
  store double %2, ptr %9, align 8, !tbaa !19
  store double %3, ptr %10, align 8, !tbaa !19
  store double %4, ptr %11, align 8, !tbaa !19
  store double %5, ptr %12, align 8, !tbaa !19
  call void @llvm.lifetime.start.p0(i64 32, ptr %13) #18
  %14 = getelementptr inbounds nuw %struct._RsvgRectangle, ptr %13, i32 0, i32 0
  %15 = load double, ptr %11, align 8, !tbaa !19
  store double %15, ptr %14, align 8, !tbaa !114
  %16 = getelementptr inbounds nuw %struct._RsvgRectangle, ptr %13, i32 0, i32 1
  %17 = load double, ptr %12, align 8, !tbaa !19
  store double %17, ptr %16, align 8, !tbaa !115
  %18 = getelementptr inbounds nuw %struct._RsvgRectangle, ptr %13, i32 0, i32 2
  %19 = load double, ptr %9, align 8, !tbaa !19
  store double %19, ptr %18, align 8, !tbaa !111
  %20 = getelementptr inbounds nuw %struct._RsvgRectangle, ptr %13, i32 0, i32 3
  %21 = load double, ptr %10, align 8, !tbaa !19
  store double %21, ptr %20, align 8, !tbaa !113
  %22 = load ptr, ptr %7, align 8, !tbaa !51
  %23 = load ptr, ptr %8, align 8, !tbaa !97
  %24 = call i32 @rsvg_handle_render_document(ptr noundef %22, ptr noundef %23, ptr noundef %13, ptr noundef null)
  call void @llvm.lifetime.end.p0(i64 32, ptr %13) #18
  ret void
}