; Function Attrs: nounwind uwtable
define void @dt_render_svg(ptr noundef %0, ptr noundef %1, double noundef %2, double noundef %3, double noundef %4, double noundef %5) local_unnamed_addr #0 {
  %7 = alloca %struct._RsvgRectangle, align 8
  call void @llvm.lifetime.start.p0(i64 32, ptr nonnull %7) #27
  store double %4, ptr %7, align 8, !tbaa !94
  %8 = getelementptr inbounds nuw i8, ptr %7, i64 8
  store double %5, ptr %8, align 8, !tbaa !95
  %9 = getelementptr inbounds nuw i8, ptr %7, i64 16
  store double %2, ptr %9, align 8, !tbaa !39
  %10 = getelementptr inbounds nuw i8, ptr %7, i64 24
  store double %3, ptr %10, align 8, !tbaa !41
  %11 = call i32 @rsvg_handle_render_document(ptr noundef %0, ptr noundef %1, ptr noundef nonnull %7, ptr noundef null) #27
  call void @llvm.lifetime.end.p0(i64 32, ptr nonnull %7) #27
  ret void
}